(dp0
S'xomo_ground'
p1
(dp2
S'MOEAD'
p3
(lp4
F8.44844102859497
aF8.511874198913574
aF8.960294008255005
aF8.407088994979858
aF8.723545789718628
asS'NSGAII'
p5
(lp6
F3.6995561122894287
aF3.7936861515045166
aF3.795527935028076
aF3.81813907623291
aF3.852668046951294
asS'SPEA2'
p7
(lp8
F9.119749069213867
aF9.041179895401001
aF9.145993947982788
aF9.156901121139526
aF9.07439398765564
assS'POM3D'
p9
(dp10
g3
(lp11
F6.4606239795684814
aF7.5131120681762695
aF6.762739896774292
aF7.0026819705963135
aF6.602174997329712
asg5
(lp12
F4.02465295791626
aF4.0482869148254395
aF3.9450249671936035
aF3.973510980606079
aF3.9365060329437256
asg7
(lp13
F7.906496047973633
aF8.195919036865234
aF8.031908988952637
aF8.225738048553467
aF8.205424070358276
assS'POM3A'
p14
(dp15
g3
(lp16
F11.891536951065063
aF10.656053066253662
aF10.260576963424683
aF11.649523973464966
aF11.93332290649414
asg5
(lp17
F17.006356954574585
aF24.038661003112793
aF20.89094305038452
aF20.74783992767334
aF19.661823987960815
asg7
(lp18
F21.3564510345459
aF27.61076283454895
aF25.548120975494385
aF21.249637126922607
aF26.39578413963318
assS'POM3B'
p19
(dp20
g3
(lp21
F6.164116859436035
aF6.8422629833221436
aF6.669632196426392
aF8.332247018814087
aF6.7158119678497314
asg5
(lp22
F5.297872066497803
aF3.883589029312134
aF4.0130579471588135
aF3.8399930000305176
aF4.07622504234314
asg7
(lp23
F9.452009916305542
aF8.700121879577637
aF7.3126819133758545
aF8.340494155883789
aF8.670555830001831
assS'xomo_flight'
p24
(dp25
g3
(lp26
F9.106971025466919
aF8.473707914352417
aF8.498398065567017
aF8.584095001220703
aF8.681895017623901
asg5
(lp27
F3.7983558177948
aF3.8071348667144775
aF3.8467540740966797
aF3.844923973083496
aF3.869419813156128
asg7
(lp28
F9.374888896942139
aF9.206608057022095
aF9.339540004730225
aF9.633509874343872
aF10.438224077224731
assS'xomo_all'
p29
(dp30
g3
(lp31
F9.160308122634888
aF9.074759006500244
aF8.634405851364136
aF8.807135820388794
aF8.773128986358643
asg5
(lp32
F3.83552622795105
aF3.8606410026550293
aF3.844935894012451
aF3.8343679904937744
aF3.872567892074585
asg7
(lp33
F9.25341010093689
aF9.272103786468506
aF9.361524105072021
aF9.267492055892944
aF9.301228046417236
assS'xomo_osp'
p34
(dp35
g3
(lp36
F8.728785991668701
aF8.661141872406006
aF8.81189489364624
aF8.624037981033325
aF8.533684968948364
asg5
(lp37
F3.6709890365600586
aF3.7972049713134766
aF4.110150098800659
aF3.7595980167388916
aF3.8671510219573975
asg7
(lp38
F8.57953405380249
aF8.971099138259888
aF8.807044982910156
aF9.159070014953613
aF8.488996982574463
assS'xomoo2'
p39
(dp40
g3
(lp41
F7.9689271450042725
aF8.366295099258423
aF9.0989670753479
aF8.445428848266602
aF8.42451000213623
asg5
(lp42
F3.739360809326172
aF3.9791431427001953
aF3.762152910232544
aF3.7213499546051025
aF3.7438480854034424
asg7
(lp43
F8.96143388748169
aF8.938971042633057
aF8.957856178283691
aF9.068438053131104
aF8.972635984420776
assS'POM3C'
p44
(dp45
g3
(lp46
F104.74281001091003
aF79.94598412513733
aF81.53485798835754
aF84.45233917236328
aF82.83535480499268
asg5
(lp47
F116.08041501045227
aF138.76136708259583
aF120.58997893333435
aF125.23281788825989
aF101.08290982246399
asg7
(lp48
F114.68291401863098
aF111.03164911270142
aF127.78161787986755
aF111.42024087905884
aF117.81574201583862
ass.